; ModuleID = '39/1431.c'
source_filename = "39/1431.c"
target datalayout = "e-m:e-p270:32:32-p271:32:32-p272:64:64-i64:64-f80:128-n8:16:32:64-S128"
target triple = "x86_64-pc-linux-gnu"

%struct.s = type { [20 x i8], i32, i32, i8, i8, i32 }

@.str = private unnamed_addr constant [3 x i8] c"%d\00", align 1
@.str.1 = private unnamed_addr constant [18 x i8] c"%s %d %d %c %c %d\00", align 1
@.str.2 = private unnamed_addr constant [4 x i8] c"%s\0A\00", align 1
@.str.3 = private unnamed_addr constant [9 x i8] c"%d\0A%.0f\0A\00", align 1

; Function Attrs: noinline nounwind uwtable
define dso_local void @main() #0 {
  %1 = alloca [100 x %struct.s], align 16
  %2 = alloca i32, align 4
  %3 = alloca i32, align 4
  %4 = alloca i32, align 4
  %5 = alloca [100 x i32], align 16
  %6 = alloca i32, align 4
  %7 = alloca double, align 8
  store double 0.000000e+00, double* %7, align 8
  %8 = call i32 (i8*, ...) @__isoc99_scanf(i8* getelementptr inbounds ([3 x i8], [3 x i8]* @.str, i64 0, i64 0), i32* %2)
  store i32 0, i32* %3, align 4
  br label %9

9:                                                ; preds = %153, %0
  %10 = load i32, i32* %3, align 4
  %11 = load i32, i32* %2, align 4
  %12 = icmp slt i32 %10, %11
  br i1 %12, label %13, label %156

13:                                               ; preds = %9
  %14 = load i32, i32* %3, align 4
  %15 = sext i32 %14 to i64
  %16 = getelementptr inbounds [100 x %struct.s], [100 x %struct.s]* %1, i64 0, i64 %15
  %17 = getelementptr inbounds %struct.s, %struct.s* %16, i32 0, i32 0
  %18 = getelementptr inbounds [20 x i8], [20 x i8]* %17, i64 0, i64 0
  %19 = load i32, i32* %3, align 4
  %20 = sext i32 %19 to i64
  %21 = getelementptr inbounds [100 x %struct.s], [100 x %struct.s]* %1, i64 0, i64 %20
  %22 = getelementptr inbounds %struct.s, %struct.s* %21, i32 0, i32 1
  %23 = load i32, i32* %3, align 4
  %24 = sext i32 %23 to i64
  %25 = getelementptr inbounds [100 x %struct.s], [100 x %struct.s]* %1, i64 0, i64 %24
  %26 = getelementptr inbounds %struct.s, %struct.s* %25, i32 0, i32 2
  %27 = load i32, i32* %3, align 4
  %28 = sext i32 %27 to i64
  %29 = getelementptr inbounds [100 x %struct.s], [100 x %struct.s]* %1, i64 0, i64 %28
  %30 = getelementptr inbounds %struct.s, %struct.s* %29, i32 0, i32 3
  %31 = load i32, i32* %3, align 4
  %32 = sext i32 %31 to i64
  %33 = getelementptr inbounds [100 x %struct.s], [100 x %struct.s]* %1, i64 0, i64 %32
  %34 = getelementptr inbounds %struct.s, %struct.s* %33, i32 0, i32 4
  %35 = load i32, i32* %3, align 4
  %36 = sext i32 %35 to i64
  %37 = getelementptr inbounds [100 x %struct.s], [100 x %struct.s]* %1, i64 0, i64 %36
  %38 = getelementptr inbounds %struct.s, %struct.s* %37, i32 0, i32 5
  %39 = call i32 (i8*, ...) @__isoc99_scanf(i8* getelementptr inbounds ([18 x i8], [18 x i8]* @.str.1, i64 0, i64 0), i8* %18, i32* %22, i32* %26, i8* %30, i8* %34, i32* %38)
  %40 = load i32, i32* %3, align 4
  %41 = sext i32 %40 to i64
  %42 = getelementptr inbounds [100 x i32], [100 x i32]* %5, i64 0, i64 %41
  store i32 0, i32* %42, align 4
  %43 = load i32, i32* %3, align 4
  %44 = sext i32 %43 to i64
  %45 = getelementptr inbounds [100 x %struct.s], [100 x %struct.s]* %1, i64 0, i64 %44
  %46 = getelementptr inbounds %struct.s, %struct.s* %45, i32 0, i32 1
  %47 = load i32, i32* %46, align 4
  %48 = icmp sgt i32 %47, 80
  br i1 %48, label %49, label %65

49:                                               ; preds = %13
  %50 = load i32, i32* %3, align 4
  %51 = sext i32 %50 to i64
  %52 = getelementptr inbounds [100 x %struct.s], [100 x %struct.s]* %1, i64 0, i64 %51
  %53 = getelementptr inbounds %struct.s, %struct.s* %52, i32 0, i32 5
  %54 = load i32, i32* %53, align 4
  %55 = icmp ne i32 %54, 0
  br i1 %55, label %56, label %65

56:                                               ; preds = %49
  %57 = load i32, i32* %3, align 4
  %58 = sext i32 %57 to i64
  %59 = getelementptr inbounds [100 x i32], [100 x i32]* %5, i64 0, i64 %58
  %60 = load i32, i32* %59, align 4
  %61 = add nsw i32 %60, 8000
  %62 = load i32, i32* %3, align 4
  %63 = sext i32 %62 to i64
  %64 = getelementptr inbounds [100 x i32], [100 x i32]* %5, i64 0, i64 %63
  store i32 %61, i32* %64, align 4
  br label %65

65:                                               ; preds = %56, %49, %13
  %66 = load i32, i32* %3, align 4
  %67 = sext i32 %66 to i64
  %68 = getelementptr inbounds [100 x %struct.s], [100 x %struct.s]* %1, i64 0, i64 %67
  %69 = getelementptr inbounds %struct.s, %struct.s* %68, i32 0, i32 1
  %70 = load i32, i32* %69, align 4
  %71 = icmp sgt i32 %70, 85
  br i1 %71, label %72, label %88

72:                                               ; preds = %65
  %73 = load i32, i32* %3, align 4
  %74 = sext i32 %73 to i64
  %75 = getelementptr inbounds [100 x %struct.s], [100 x %struct.s]* %1, i64 0, i64 %74
  %76 = getelementptr inbounds %struct.s, %struct.s* %75, i32 0, i32 2
  %77 = load i32, i32* %76, align 4
  %78 = icmp sgt i32 %77, 80
  br i1 %78, label %79, label %88

79:                                               ; preds = %72
  %80 = load i32, i32* %3, align 4
  %81 = sext i32 %80 to i64
  %82 = getelementptr inbounds [100 x i32], [100 x i32]* %5, i64 0, i64 %81
  %83 = load i32, i32* %82, align 4
  %84 = add nsw i32 %83, 4000
  %85 = load i32, i32* %3, align 4
  %86 = sext i32 %85 to i64
  %87 = getelementptr inbounds [100 x i32], [100 x i32]* %5, i64 0, i64 %86
  store i32 %84, i32* %87, align 4
  br label %88

88:                                               ; preds = %79, %72, %65
  %89 = load i32, i32* %3, align 4
  %90 = sext i32 %89 to i64
  %91 = getelementptr inbounds [100 x %struct.s], [100 x %struct.s]* %1, i64 0, i64 %90
  %92 = getelementptr inbounds %struct.s, %struct.s* %91, i32 0, i32 1
  %93 = load i32, i32* %92, align 4
  %94 = icmp sgt i32 %93, 90
  br i1 %94, label %95, label %104

95:                                               ; preds = %88
  %96 = load i32, i32* %3, align 4
  %97 = sext i32 %96 to i64
  %98 = getelementptr inbounds [100 x i32], [100 x i32]* %5, i64 0, i64 %97
  %99 = load i32, i32* %98, align 4
  %100 = add nsw i32 %99, 2000
  %101 = load i32, i32* %3, align 4
  %102 = sext i32 %101 to i64
  %103 = getelementptr inbounds [100 x i32], [100 x i32]* %5, i64 0, i64 %102
  store i32 %100, i32* %103, align 4
  br label %104

104:                                              ; preds = %95, %88
  %105 = load i32, i32* %3, align 4
  %106 = sext i32 %105 to i64
  %107 = getelementptr inbounds [100 x %struct.s], [100 x %struct.s]* %1, i64 0, i64 %106
  %108 = getelementptr inbounds %struct.s, %struct.s* %107, i32 0, i32 1
  %109 = load i32, i32* %108, align 4
  %110 = icmp sgt i32 %109, 85
  br i1 %110, label %111, label %128

111:                                              ; preds = %104
  %112 = load i32, i32* %3, align 4
  %113 = sext i32 %112 to i64
  %114 = getelementptr inbounds [100 x %struct.s], [100 x %struct.s]* %1, i64 0, i64 %113
  %115 = getelementptr inbounds %struct.s, %struct.s* %114, i32 0, i32 4
  %116 = load i8, i8* %115, align 1
  %117 = sext i8 %116 to i32
  %118 = icmp eq i32 %117, 89
  br i1 %118, label %119, label %128

119:                                              ; preds = %111
  %120 = load i32, i32* %3, align 4
  %121 = sext i32 %120 to i64
  %122 = getelementptr inbounds [100 x i32], [100 x i32]* %5, i64 0, i64 %121
  %123 = load i32, i32* %122, align 4
  %124 = add nsw i32 %123, 1000
  %125 = load i32, i32* %3, align 4
  %126 = sext i32 %125 to i64
  %127 = getelementptr inbounds [100 x i32], [100 x i32]* %5, i64 0, i64 %126
  store i32 %124, i32* %127, align 4
  br label %128

128:                                              ; preds = %119, %111, %104
  %129 = load i32, i32* %3, align 4
  %130 = sext i32 %129 to i64
  %131 = getelementptr inbounds [100 x %struct.s], [100 x %struct.s]* %1, i64 0, i64 %130
  %132 = getelementptr inbounds %struct.s, %struct.s* %131, i32 0, i32 2
  %133 = load i32, i32* %132, align 4
  %134 = icmp sgt i32 %133, 80
  br i1 %134, label %135, label %152

135:                                              ; preds = %128
  %136 = load i32, i32* %3, align 4
  %137 = sext i32 %136 to i64
  %138 = getelementptr inbounds [100 x %struct.s], [100 x %struct.s]* %1, i64 0, i64 %137
  %139 = getelementptr inbounds %struct.s, %struct.s* %138, i32 0, i32 3
  %140 = load i8, i8* %139, align 4
  %141 = sext i8 %140 to i32
  %142 = icmp eq i32 %141, 89
  br i1 %142, label %143, label %152

143:                                              ; preds = %135
  %144 = load i32, i32* %3, align 4
  %145 = sext i32 %144 to i64
  %146 = getelementptr inbounds [100 x i32], [100 x i32]* %5, i64 0, i64 %145
  %147 = load i32, i32* %146, align 4
  %148 = add nsw i32 %147, 850
  %149 = load i32, i32* %3, align 4
  %150 = sext i32 %149 to i64
  %151 = getelementptr inbounds [100 x i32], [100 x i32]* %5, i64 0, i64 %150
  store i32 %148, i32* %151, align 4
  br label %152

152:                                              ; preds = %143, %135, %128
  br label %153

153:                                              ; preds = %152
  %154 = load i32, i32* %3, align 4
  %155 = add nsw i32 %154, 1
  store i32 %155, i32* %3, align 4
  br label %9

156:                                              ; preds = %9
  %157 = getelementptr inbounds [100 x i32], [100 x i32]* %5, i64 0, i64 0
  %158 = load i32, i32* %157, align 16
  store i32 %158, i32* %4, align 4
  store i32 0, i32* %3, align 4
  br label %159

159:                                              ; preds = %184, %156
  %160 = load i32, i32* %3, align 4
  %161 = load i32, i32* %2, align 4
  %162 = icmp slt i32 %160, %161
  br i1 %162, label %163, label %187

163:                                              ; preds = %159
  %164 = load i32, i32* %4, align 4
  %165 = load i32, i32* %3, align 4
  %166 = sext i32 %165 to i64
  %167 = getelementptr inbounds [100 x i32], [100 x i32]* %5, i64 0, i64 %166
  %168 = load i32, i32* %167, align 4
  %169 = icmp slt i32 %164, %168
  br i1 %169, label %170, label %176

170:                                              ; preds = %163
  %171 = load i32, i32* %3, align 4
  %172 = sext i32 %171 to i64
  %173 = getelementptr inbounds [100 x i32], [100 x i32]* %5, i64 0, i64 %172
  %174 = load i32, i32* %173, align 4
  store i32 %174, i32* %4, align 4
  %175 = load i32, i32* %3, align 4
  store i32 %175, i32* %6, align 4
  br label %176

176:                                              ; preds = %170, %163
  %177 = load i32, i32* %3, align 4
  %178 = sext i32 %177 to i64
  %179 = getelementptr inbounds [100 x i32], [100 x i32]* %5, i64 0, i64 %178
  %180 = load i32, i32* %179, align 4
  %181 = sitofp i32 %180 to double
  %182 = load double, double* %7, align 8
  %183 = fadd double %181, %182
  store double %183, double* %7, align 8
  br label %184

184:                                              ; preds = %176
  %185 = load i32, i32* %3, align 4
  %186 = add nsw i32 %185, 1
  store i32 %186, i32* %3, align 4
  br label %159

187:                                              ; preds = %159
  %188 = load i32, i32* %6, align 4
  %189 = sext i32 %188 to i64
  %190 = getelementptr inbounds [100 x %struct.s], [100 x %struct.s]* %1, i64 0, i64 %189
  %191 = getelementptr inbounds %struct.s, %struct.s* %190, i32 0, i32 0
  %192 = getelementptr inbounds [20 x i8], [20 x i8]* %191, i64 0, i64 0
  %193 = call i32 (i8*, ...) @printf(i8* getelementptr inbounds ([4 x i8], [4 x i8]* @.str.2, i64 0, i64 0), i8* %192)
  %194 = load i32, i32* %4, align 4
  %195 = load double, double* %7, align 8
  %196 = call i32 (i8*, ...) @printf(i8* getelementptr inbounds ([9 x i8], [9 x i8]* @.str.3, i64 0, i64 0), i32 %194, double %195)
  ret void
}

declare dso_local i32 @__isoc99_scanf(i8*, ...) #1

declare dso_local i32 @printf(i8*, ...) #1


!llvm.module.flags = !{!0}
!llvm.ident = !{!1}

!0 = !{i32 1, !"wchar_size", i32 4}
!1 = !{!"clang version 10.0.0-4ubuntu1 "}
